; Function Attrs: mustprogress nofree norecurse nosync nounwind willreturn memory(read, inaccessiblemem: none) uwtable
define { ptr, i32 } @_ZNK10OpenSubdiv6v3_6_03Far10PatchTable18GetPatchFVarValuesERKNS2_11PatchHandleEi(ptr nocapture noundef nonnull readonly align 8 dereferenceable(273) %0, ptr nocapture noundef nonnull readonly align 4 dereferenceable(12) %1, i32 noundef %2) local_unnamed_addr #6 align 2 {
  %4 = getelementptr inbounds nuw i8, ptr %1, i64 4
  %5 = load i32, ptr %4, align 4
  %6 = getelementptr inbounds nuw i8, ptr %0, i64 176
  %7 = sext i32 %2 to i64
  %8 = load ptr, ptr %6, align 8
  %9 = getelementptr inbounds %"struct.OpenSubdiv::v3_6_0::Far::PatchTable::FVarPatchChannel", ptr %8, i64 %7
  %10 = getelementptr inbounds nuw i8, ptr %9, i64 40
  %11 = sext i32 %5 to i64
  %12 = load ptr, ptr %10, align 8
  %13 = getelementptr inbounds %"struct.OpenSubdiv::v3_6_0::Far::PatchParam", ptr %12, i64 %11
  %14 = load i64, ptr %13, align 4
  %15 = and i64 %14, 137438953472
  %.not.i = icmp eq i64 %15, 0
  br i1 %.not.i, label %20, label %16

16:                                               ; preds = %3
  %17 = getelementptr inbounds nuw i8, ptr %9, i64 4
  %18 = load i32, ptr %17, align 4
  %switch.tableidx = add i32 %18, -1
  %19 = icmp ult i32 %switch.tableidx, 10
  br i1 %19, label %switch.lookup, label %_ZNK10OpenSubdiv6v3_6_03Far10PatchTable18getPatchFVarValuesEii.exit

20:                                               ; preds = %3
  %21 = getelementptr inbounds nuw i8, ptr %9, i64 8
  %22 = load i32, ptr %21, align 4
  %switch.tableidx5 = add i32 %22, -1
  %23 = icmp ult i32 %switch.tableidx5, 10
  br i1 %23, label %switch.lookup4, label %_ZNK10OpenSubdiv6v3_6_03Far10PatchTable18getPatchFVarValuesEii.exit

switch.lookup:                                    ; preds = %16
  %24 = zext nneg i32 %switch.tableidx to i64
  %switch.gep = getelementptr inbounds [10 x i32], ptr @switch.table._ZNK10OpenSubdiv6v3_6_03Far10PatchTable18GetPatchFVarValuesEiii.5, i64 0, i64 %24
  br label %_ZNK10OpenSubdiv6v3_6_03Far10PatchTable18getPatchFVarValuesEii.exit.sink.split

switch.lookup4:                                   ; preds = %20
  %25 = zext nneg i32 %switch.tableidx5 to i64
  %switch.gep6 = getelementptr inbounds [10 x i32], ptr @switch.table._ZNK10OpenSubdiv6v3_6_03Far10PatchTable18GetPatchFVarValuesEiii.5, i64 0, i64 %25
  br label %_ZNK10OpenSubdiv6v3_6_03Far10PatchTable18getPatchFVarValuesEii.exit.sink.split

_ZNK10OpenSubdiv6v3_6_03Far10PatchTable18getPatchFVarValuesEii.exit.sink.split: ; preds = %switch.lookup, %switch.lookup4
  %switch.gep6.sink = phi ptr [ %switch.gep6, %switch.lookup4 ], [ %switch.gep, %switch.lookup ]
  %switch.load7 = load i32, ptr %switch.gep6.sink, align 4
  br label %_ZNK10OpenSubdiv6v3_6_03Far10PatchTable18getPatchFVarValuesEii.exit

_ZNK10OpenSubdiv6v3_6_03Far10PatchTable18getPatchFVarValuesEii.exit: ; preds = %_ZNK10OpenSubdiv6v3_6_03Far10PatchTable18getPatchFVarValuesEii.exit.sink.split, %20, %16
  %26 = phi i32 [ -1, %16 ], [ -1, %20 ], [ %switch.load7, %_ZNK10OpenSubdiv6v3_6_03Far10PatchTable18getPatchFVarValuesEii.exit.sink.split ]
  %27 = getelementptr inbounds nuw i8, ptr %9, i64 16
  %28 = getelementptr inbounds nuw i8, ptr %9, i64 12
  %29 = load i32, ptr %28, align 4
  %30 = mul nsw i32 %29, %5
  %31 = sext i32 %30 to i64
  %32 = load ptr, ptr %27, align 8
  %33 = getelementptr inbounds i32, ptr %32, i64 %31
  %.fca.0.insert.i = insertvalue { ptr, i32 } poison, ptr %33, 0
  %.fca.1.insert.i = insertvalue { ptr, i32 } %.fca.0.insert.i, i32 %26, 1
  ret { ptr, i32 } %.fca.1.insert.i
}